target datalayout = "e-m:e-p270:32:32-p271:32:32-p272:64:64-i64:64-i128:128-f80:128-n8:16:32:64-S128"
target triple = "x86_64-pc-linux-gnu"

%struct.pm_regexp_parser_t = type { ptr, ptr, ptr, ptr, i8, i8, ptr, ptr, ptr, ptr, ptr }
%struct.pm_string_t = type { ptr, i64, i32 }

; Function Attrs: nounwind sspstrong uwtable
define internal void @pm_regexp_parser_named_capture(ptr noundef %0, ptr noundef %1, ptr noundef %2) #0 {
  %4 = alloca ptr, align 8
  %5 = alloca ptr, align 8
  %6 = alloca ptr, align 8
  %7 = alloca %struct.pm_string_t, align 8
  store ptr %0, ptr %4, align 8, !tbaa !18
  store ptr %1, ptr %5, align 8, !tbaa !12
  store ptr %2, ptr %6, align 8, !tbaa !12
  call void @llvm.lifetime.start.p0(i64 24, ptr %7) #8
  %8 = load ptr, ptr %5, align 8, !tbaa !12
  %9 = load ptr, ptr %6, align 8, !tbaa !12
  call void @pm_string_shared_init(ptr noundef %7, ptr noundef %8, ptr noundef %9)
  %10 = load ptr, ptr %4, align 8, !tbaa !18
  %11 = getelementptr inbounds nuw %struct.pm_regexp_parser_t, ptr %10, i32 0, i32 7
  %12 = load ptr, ptr %11, align 8, !tbaa !47
  %13 = load ptr, ptr %4, align 8, !tbaa !18
  %14 = getelementptr inbounds nuw %struct.pm_regexp_parser_t, ptr %13, i32 0, i32 8
  %15 = load ptr, ptr %14, align 8, !tbaa !48
  call void %12(ptr noundef %7, ptr noundef %15)
  call void @pm_string_free(ptr noundef %7)
  call void @llvm.lifetime.end.p0(i64 24, ptr %7) #8
  ret void
}