; Function Attrs: nounwind sspstrong uwtable
define internal fastcc void @pm_regexp_parser_named_capture(ptr noundef nonnull readonly captures(none) %0, ptr noundef %1, ptr noundef %2) unnamed_addr #0 {
  %4 = alloca %struct.pm_string_t, align 8
  call void @llvm.lifetime.start.p0(i64 24, ptr nonnull %4) #5
  call void @pm_string_shared_init(ptr noundef nonnull %4, ptr noundef %1, ptr noundef %2) #5
  %5 = getelementptr inbounds nuw i8, ptr %0, i64 48
  %6 = load ptr, ptr %5, align 8, !tbaa !42
  %7 = getelementptr inbounds nuw i8, ptr %0, i64 56
  %8 = load ptr, ptr %7, align 8, !tbaa !43
  call void %6(ptr noundef nonnull %4, ptr noundef %8) #5
  call void @pm_string_free(ptr noundef nonnull %4) #5
  call void @llvm.lifetime.end.p0(i64 24, ptr nonnull %4) #5
  ret void
}